target datalayout = "e-m:e-p270:32:32-p271:32:32-p272:64:64-i64:64-i128:128-f80:128-n8:16:32:64-S128"
target triple = "x86_64-pc-linux-gnu"

%struct.UTrie2 = type { ptr, ptr, ptr, i32, i32, i16, i16, i32, i32, i32, i32, ptr, i32, i8, i8, i16, ptr }
%"class.icu_77::UTrie2StringIterator" = type <{ ptr, ptr, ptr, i32, [4 x i8] }>
%"class.icu_77::BackwardUTrie2StringIterator" = type { %"class.icu_77::UTrie2StringIterator.base", ptr }
%"class.icu_77::UTrie2StringIterator.base" = type <{ ptr, ptr, ptr, i32 }>

; Function Attrs: mustprogress nounwind uwtable
define noundef zeroext i16 @_ZN6icu_7728BackwardUTrie2StringIterator10previous16Ev(ptr noundef nonnull align 8 dereferenceable(40) %0) #1 align 2 {
  %2 = alloca i16, align 2
  %3 = alloca ptr, align 8
  %4 = alloca i16, align 2
  %5 = alloca i16, align 2
  store ptr %0, ptr %3, align 8, !tbaa !71
  %6 = load ptr, ptr %3, align 8
  %7 = getelementptr inbounds nuw %"class.icu_77::UTrie2StringIterator", ptr %6, i32 0, i32 1
  %8 = load ptr, ptr %7, align 8, !tbaa !73
  %9 = getelementptr inbounds nuw %"class.icu_77::UTrie2StringIterator", ptr %6, i32 0, i32 2
  store ptr %8, ptr %9, align 8, !tbaa !76
  %10 = getelementptr inbounds nuw %"class.icu_77::BackwardUTrie2StringIterator", ptr %6, i32 0, i32 1
  %11 = load ptr, ptr %10, align 8, !tbaa !77
  %12 = getelementptr inbounds nuw %"class.icu_77::UTrie2StringIterator", ptr %6, i32 0, i32 1
  %13 = load ptr, ptr %12, align 8, !tbaa !73
  %14 = icmp uge ptr %11, %13
  br i1 %14, label %15, label %22

15:                                               ; preds = %1
  %16 = getelementptr inbounds nuw %"class.icu_77::UTrie2StringIterator", ptr %6, i32 0, i32 3
  store i32 -1, ptr %16, align 8, !tbaa !79
  %17 = getelementptr inbounds nuw %"class.icu_77::UTrie2StringIterator", ptr %6, i32 0, i32 0
  %18 = load ptr, ptr %17, align 8, !tbaa !80
  %19 = getelementptr inbounds nuw %struct.UTrie2, ptr %18, i32 0, i32 8
  %20 = load i32, ptr %19, align 8, !tbaa !22
  %21 = trunc i32 %20 to i16
  store i16 %21, ptr %2, align 2
  br label %146

22:                                               ; preds = %1
  call void @llvm.lifetime.start.p0(i64 2, ptr %4) #8
  br label %23

23:                                               ; preds = %22
  call void @llvm.lifetime.start.p0(i64 2, ptr %5) #8
  %24 = getelementptr inbounds nuw %"class.icu_77::UTrie2StringIterator", ptr %6, i32 0, i32 1
  %25 = load ptr, ptr %24, align 8, !tbaa !73
  %26 = getelementptr inbounds i16, ptr %25, i32 -1
  store ptr %26, ptr %24, align 8, !tbaa !73
  %27 = load i16, ptr %26, align 2, !tbaa !81
  %28 = zext i16 %27 to i32
  %29 = getelementptr inbounds nuw %"class.icu_77::UTrie2StringIterator", ptr %6, i32 0, i32 3
  store i32 %28, ptr %29, align 8, !tbaa !79
  %30 = getelementptr inbounds nuw %"class.icu_77::UTrie2StringIterator", ptr %6, i32 0, i32 3
  %31 = load i32, ptr %30, align 8, !tbaa !79
  %32 = and i32 %31, -1024
  %33 = icmp eq i32 %32, 56320
  br i1 %33, label %34, label %48

34:                                               ; preds = %23
  %35 = getelementptr inbounds nuw %"class.icu_77::UTrie2StringIterator", ptr %6, i32 0, i32 1
  %36 = load ptr, ptr %35, align 8, !tbaa !73
  %37 = getelementptr inbounds nuw %"class.icu_77::BackwardUTrie2StringIterator", ptr %6, i32 0, i32 1
  %38 = load ptr, ptr %37, align 8, !tbaa !77
  %39 = icmp eq ptr %36, %38
  br i1 %39, label %48, label %40

40:                                               ; preds = %34
  %41 = getelementptr inbounds nuw %"class.icu_77::UTrie2StringIterator", ptr %6, i32 0, i32 1
  %42 = load ptr, ptr %41, align 8, !tbaa !73
  %43 = getelementptr inbounds i16, ptr %42, i64 -1
  %44 = load i16, ptr %43, align 2, !tbaa !81
  store i16 %44, ptr %5, align 2, !tbaa !17
  %45 = zext i16 %44 to i32
  %46 = and i32 %45, -1024
  %47 = icmp eq i32 %46, 55296
  br i1 %47, label %78, label %48

48:                                               ; preds = %40, %34, %23
  %49 = getelementptr inbounds nuw %"class.icu_77::UTrie2StringIterator", ptr %6, i32 0, i32 0
  %50 = load ptr, ptr %49, align 8, !tbaa !80
  %51 = getelementptr inbounds nuw %struct.UTrie2, ptr %50, i32 0, i32 0
  %52 = load ptr, ptr %51, align 8, !tbaa !16
  %53 = getelementptr inbounds nuw %"class.icu_77::UTrie2StringIterator", ptr %6, i32 0, i32 0
  %54 = load ptr, ptr %53, align 8, !tbaa !80
  %55 = getelementptr inbounds nuw %struct.UTrie2, ptr %54, i32 0, i32 0
  %56 = load ptr, ptr %55, align 8, !tbaa !16
  %57 = getelementptr inbounds nuw %"class.icu_77::UTrie2StringIterator", ptr %6, i32 0, i32 3
  %58 = load i32, ptr %57, align 8, !tbaa !79
  %59 = and i32 %58, -1024
  %60 = icmp eq i32 %59, 55296
  %61 = select i1 %60, i32 320, i32 0
  %62 = getelementptr inbounds nuw %"class.icu_77::UTrie2StringIterator", ptr %6, i32 0, i32 3
  %63 = load i32, ptr %62, align 8, !tbaa !79
  %64 = ashr i32 %63, 5
  %65 = add nsw i32 %61, %64
  %66 = sext i32 %65 to i64
  %67 = getelementptr inbounds i16, ptr %56, i64 %66
  %68 = load i16, ptr %67, align 2, !tbaa !17
  %69 = zext i16 %68 to i32
  %70 = shl i32 %69, 2
  %71 = getelementptr inbounds nuw %"class.icu_77::UTrie2StringIterator", ptr %6, i32 0, i32 3
  %72 = load i32, ptr %71, align 8, !tbaa !79
  %73 = and i32 %72, 31
  %74 = add nsw i32 %70, %73
  %75 = sext i32 %74 to i64
  %76 = getelementptr inbounds i16, ptr %52, i64 %75
  %77 = load i16, ptr %76, align 2, !tbaa !17
  store i16 %77, ptr %4, align 2, !tbaa !17
  br label %142

78:                                               ; preds = %40
  %79 = getelementptr inbounds nuw %"class.icu_77::UTrie2StringIterator", ptr %6, i32 0, i32 1
  %80 = load ptr, ptr %79, align 8, !tbaa !73
  %81 = getelementptr inbounds i16, ptr %80, i32 -1
  store ptr %81, ptr %79, align 8, !tbaa !73
  %82 = load i16, ptr %5, align 2, !tbaa !17
  %83 = zext i16 %82 to i32
  %84 = shl i32 %83, 10
  %85 = getelementptr inbounds nuw %"class.icu_77::UTrie2StringIterator", ptr %6, i32 0, i32 3
  %86 = load i32, ptr %85, align 8, !tbaa !79
  %87 = add nsw i32 %84, %86
  %88 = sub nsw i32 %87, 56613888
  %89 = getelementptr inbounds nuw %"class.icu_77::UTrie2StringIterator", ptr %6, i32 0, i32 3
  store i32 %88, ptr %89, align 8, !tbaa !79
  %90 = getelementptr inbounds nuw %"class.icu_77::UTrie2StringIterator", ptr %6, i32 0, i32 0
  %91 = load ptr, ptr %90, align 8, !tbaa !80
  %92 = getelementptr inbounds nuw %struct.UTrie2, ptr %91, i32 0, i32 0
  %93 = load ptr, ptr %92, align 8, !tbaa !16
  %94 = getelementptr inbounds nuw %"class.icu_77::UTrie2StringIterator", ptr %6, i32 0, i32 3
  %95 = load i32, ptr %94, align 8, !tbaa !79
  %96 = getelementptr inbounds nuw %"class.icu_77::UTrie2StringIterator", ptr %6, i32 0, i32 0
  %97 = load ptr, ptr %96, align 8, !tbaa !80
  %98 = getelementptr inbounds nuw %struct.UTrie2, ptr %97, i32 0, i32 9
  %99 = load i32, ptr %98, align 4, !tbaa !19
  %100 = icmp sge i32 %95, %99
  br i1 %100, label %101, label %106

101:                                              ; preds = %78
  %102 = getelementptr inbounds nuw %"class.icu_77::UTrie2StringIterator", ptr %6, i32 0, i32 0
  %103 = load ptr, ptr %102, align 8, !tbaa !80
  %104 = getelementptr inbounds nuw %struct.UTrie2, ptr %103, i32 0, i32 10
  %105 = load i32, ptr %104, align 8, !tbaa !20
  br label %137

106:                                              ; preds = %78
  %107 = getelementptr inbounds nuw %"class.icu_77::UTrie2StringIterator", ptr %6, i32 0, i32 0
  %108 = load ptr, ptr %107, align 8, !tbaa !80
  %109 = getelementptr inbounds nuw %struct.UTrie2, ptr %108, i32 0, i32 0
  %110 = load ptr, ptr %109, align 8, !tbaa !16
  %111 = getelementptr inbounds nuw %"class.icu_77::UTrie2StringIterator", ptr %6, i32 0, i32 0
  %112 = load ptr, ptr %111, align 8, !tbaa !80
  %113 = getelementptr inbounds nuw %struct.UTrie2, ptr %112, i32 0, i32 0
  %114 = load ptr, ptr %113, align 8, !tbaa !16
  %115 = getelementptr inbounds nuw %"class.icu_77::UTrie2StringIterator", ptr %6, i32 0, i32 3
  %116 = load i32, ptr %115, align 8, !tbaa !79
  %117 = ashr i32 %116, 11
  %118 = add nsw i32 2080, %117
  %119 = sext i32 %118 to i64
  %120 = getelementptr inbounds i16, ptr %114, i64 %119
  %121 = load i16, ptr %120, align 2, !tbaa !17
  %122 = zext i16 %121 to i32
  %123 = getelementptr inbounds nuw %"class.icu_77::UTrie2StringIterator", ptr %6, i32 0, i32 3
  %124 = load i32, ptr %123, align 8, !tbaa !79
  %125 = ashr i32 %124, 5
  %126 = and i32 %125, 63
  %127 = add nsw i32 %122, %126
  %128 = sext i32 %127 to i64
  %129 = getelementptr inbounds i16, ptr %110, i64 %128
  %130 = load i16, ptr %129, align 2, !tbaa !17
  %131 = zext i16 %130 to i32
  %132 = shl i32 %131, 2
  %133 = getelementptr inbounds nuw %"class.icu_77::UTrie2StringIterator", ptr %6, i32 0, i32 3
  %134 = load i32, ptr %133, align 8, !tbaa !79
  %135 = and i32 %134, 31
  %136 = add nsw i32 %132, %135
  br label %137

137:                                              ; preds = %106, %101
  %138 = phi i32 [ %105, %101 ], [ %136, %106 ]
  %139 = sext i32 %138 to i64
  %140 = getelementptr inbounds i16, ptr %93, i64 %139
  %141 = load i16, ptr %140, align 2, !tbaa !17
  store i16 %141, ptr %4, align 2, !tbaa !17
  br label %142

142:                                              ; preds = %137, %48
  call void @llvm.lifetime.end.p0(i64 2, ptr %5) #8
  br label %143

143:                                              ; preds = %142
  br label %144

144:                                              ; preds = %143
  %145 = load i16, ptr %4, align 2, !tbaa !17
  store i16 %145, ptr %2, align 2
  call void @llvm.lifetime.end.p0(i64 2, ptr %4) #8
  br label %146

146:                                              ; preds = %144, %15
  %147 = load i16, ptr %2, align 2
  ret i16 %147
}