; Function Attrs: mustprogress nofree norecurse nosync nounwind willreturn memory(read, argmem: readwrite, inaccessiblemem: none) uwtable
define noundef zeroext i16 @_ZN6icu_7728BackwardUTrie2StringIterator10previous16Ev(ptr noundef nonnull align 8 captures(none) dereferenceable(40) initializes((16, 28)) %0) local_unnamed_addr #9 align 2 {
  %2 = getelementptr inbounds nuw i8, ptr %0, i64 8
  %3 = load ptr, ptr %2, align 8, !tbaa !59
  %4 = getelementptr inbounds nuw i8, ptr %0, i64 16
  store ptr %3, ptr %4, align 8, !tbaa !63
  %5 = getelementptr inbounds nuw i8, ptr %0, i64 32
  %6 = load ptr, ptr %5, align 8, !tbaa !64
  %.not = icmp ult ptr %6, %3
  br i1 %.not, label %13, label %7

7:                                                ; preds = %1
  %8 = getelementptr inbounds nuw i8, ptr %0, i64 24
  store i32 -1, ptr %8, align 8, !tbaa !66
  %9 = load ptr, ptr %0, align 8, !tbaa !67
  %10 = getelementptr inbounds nuw i8, ptr %9, i64 40
  %11 = load i32, ptr %10, align 8, !tbaa !20
  %12 = trunc i32 %11 to i16
  br label %76

13:                                               ; preds = %1
  %14 = getelementptr inbounds i8, ptr %3, i64 -2
  store ptr %14, ptr %2, align 8, !tbaa !59
  %15 = load i16, ptr %14, align 2, !tbaa !68
  %16 = zext i16 %15 to i32
  %17 = getelementptr inbounds nuw i8, ptr %0, i64 24
  store i32 %16, ptr %17, align 8, !tbaa !66
  %18 = and i32 %16, 64512
  %19 = icmp ne i32 %18, 56320
  %20 = icmp eq ptr %14, %6
  %or.cond = or i1 %20, %19
  br i1 %or.cond, label %27, label %21

21:                                               ; preds = %13
  %22 = getelementptr inbounds i8, ptr %3, i64 -4
  %23 = load i16, ptr %22, align 2, !tbaa !68
  %24 = zext i16 %23 to i32
  %25 = and i32 %24, 64512
  %26 = icmp eq i32 %25, 55296
  br i1 %26, label %43, label %27

27:                                               ; preds = %21, %13
  %28 = load ptr, ptr %0, align 8, !tbaa !67
  %29 = load ptr, ptr %28, align 8, !tbaa !13
  %30 = icmp eq i32 %18, 55296
  %31 = select i1 %30, i32 320, i32 0
  %32 = lshr i32 %16, 5
  %33 = add nuw nsw i32 %31, %32
  %34 = zext nneg i32 %33 to i64
  %35 = getelementptr inbounds nuw i16, ptr %29, i64 %34
  %36 = load i16, ptr %35, align 2, !tbaa !14
  %37 = zext i16 %36 to i32
  %38 = shl nuw nsw i32 %37, 2
  %39 = and i32 %16, 31
  %40 = add nuw nsw i32 %38, %39
  %41 = zext nneg i32 %40 to i64
  %42 = getelementptr inbounds nuw i16, ptr %29, i64 %41
  br label %75

43:                                               ; preds = %21
  store ptr %22, ptr %2, align 8, !tbaa !59
  %44 = shl nuw nsw i32 %24, 10
  %45 = add nuw nsw i32 %16, -56613888
  %46 = add nsw i32 %45, %44
  store i32 %46, ptr %17, align 8, !tbaa !66
  %47 = load ptr, ptr %0, align 8, !tbaa !67
  %48 = load ptr, ptr %47, align 8, !tbaa !13
  %49 = getelementptr inbounds nuw i8, ptr %47, i64 44
  %50 = load i32, ptr %49, align 4, !tbaa !16
  %.not7 = icmp slt i32 %46, %50
  br i1 %.not7, label %54, label %51

51:                                               ; preds = %43
  %52 = getelementptr inbounds nuw i8, ptr %47, i64 48
  %53 = load i32, ptr %52, align 8, !tbaa !17
  br label %71

54:                                               ; preds = %43
  %55 = lshr i32 %46, 11
  %56 = zext nneg i32 %55 to i64
  %57 = getelementptr i16, ptr %48, i64 %56
  %58 = getelementptr i8, ptr %57, i64 4160
  %59 = load i16, ptr %58, align 2, !tbaa !14
  %60 = zext i16 %59 to i32
  %61 = lshr i32 %46, 5
  %62 = and i32 %61, 63
  %63 = add nuw nsw i32 %62, %60
  %64 = zext nneg i32 %63 to i64
  %65 = getelementptr inbounds nuw i16, ptr %48, i64 %64
  %66 = load i16, ptr %65, align 2, !tbaa !14
  %67 = zext i16 %66 to i32
  %68 = shl nuw nsw i32 %67, 2
  %69 = and i32 %16, 31
  %70 = add nuw nsw i32 %68, %69
  br label %71

71:                                               ; preds = %54, %51
  %72 = phi i32 [ %53, %51 ], [ %70, %54 ]
  %73 = sext i32 %72 to i64
  %74 = getelementptr inbounds i16, ptr %48, i64 %73
  br label %75

75:                                               ; preds = %71, %27
  %.03.in = phi ptr [ %42, %27 ], [ %74, %71 ]
  %.03 = load i16, ptr %.03.in, align 2, !tbaa !14
  br label %76

76:                                               ; preds = %75, %7
  %.0 = phi i16 [ %12, %7 ], [ %.03, %75 ]
  ret i16 %.0
}